target datalayout = "e-m:e-p270:32:32-p271:32:32-p272:64:64-i64:64-i128:128-f80:128-n8:16:32:64-S128"
target triple = "x86_64-pc-linux-gnu"

%struct.gmx_ana_index_t = type { i32, ptr, i32 }

@.str.3 = private unnamed_addr constant [129 x i8] c"generated/home/dtcxzyw/WorkSpace/Projects/compilers/llvm-opt-benchmark/bench/gromacs/gromacs/src/gromacs/selection/indexutil.cpp\00", align 1
@.str.11 = private unnamed_addr constant [9 x i8] c"g->index\00", align 1

; Function Attrs: inlinehint mustprogress uwtable
define internal void @_ZL15gmx_srenew_implIiEvPKcS1_iRPT_m(ptr noundef %0, ptr noundef %1, i32 noundef %2, ptr noundef nonnull align 8 dereferenceable(8) %3, i64 noundef %4) #5 {
  %6 = alloca ptr, align 8
  %7 = alloca ptr, align 8
  %8 = alloca i32, align 4
  %9 = alloca ptr, align 8
  %10 = alloca i64, align 8
  store ptr %0, ptr %6, align 8, !tbaa !54
  store ptr %1, ptr %7, align 8, !tbaa !54
  store i32 %2, ptr %8, align 4, !tbaa !114
  store ptr %3, ptr %9, align 8, !tbaa !84
  store i64 %4, ptr %10, align 8, !tbaa !19
  %11 = load ptr, ptr %6, align 8, !tbaa !54
  %12 = load ptr, ptr %7, align 8, !tbaa !54
  %13 = load i32, ptr %8, align 4, !tbaa !114
  %14 = load ptr, ptr %9, align 8, !tbaa !84
  %15 = load ptr, ptr %14, align 8, !tbaa !77
  %16 = load i64, ptr %10, align 8, !tbaa !19
  %17 = call noundef ptr @_Z12save_reallocPKcS0_iPvmm(ptr noundef %11, ptr noundef %12, i32 noundef %13, ptr noundef %15, i64 noundef %16, i64 noundef 4)
  %18 = load ptr, ptr %9, align 8, !tbaa !84
  store ptr %17, ptr %18, align 8, !tbaa !77
  ret void
}

; Function Attrs: mustprogress uwtable
define void @_Z21gmx_ana_index_squeezeP15gmx_ana_index_t(ptr noundef %0) #0 {
  %2 = alloca ptr, align 8
  store ptr %0, ptr %2, align 8, !tbaa !232
  %3 = load ptr, ptr %2, align 8, !tbaa !232
  %4 = getelementptr inbounds nuw %struct.gmx_ana_index_t, ptr %3, i32 0, i32 1
  %5 = load ptr, ptr %2, align 8, !tbaa !232
  %6 = getelementptr inbounds nuw %struct.gmx_ana_index_t, ptr %5, i32 0, i32 0
  %7 = load i32, ptr %6, align 8, !tbaa !234
  %8 = sext i32 %7 to i64
  call void @_ZL15gmx_srenew_implIiEvPKcS1_iRPT_m(ptr noundef @.str.11, ptr noundef @.str.3, i32 noundef 291, ptr noundef nonnull align 8 dereferenceable(8) %4, i64 noundef %8)
  %9 = load ptr, ptr %2, align 8, !tbaa !232
  %10 = getelementptr inbounds nuw %struct.gmx_ana_index_t, ptr %9, i32 0, i32 0
  %11 = load i32, ptr %10, align 8, !tbaa !234
  %12 = load ptr, ptr %2, align 8, !tbaa !232
  %13 = getelementptr inbounds nuw %struct.gmx_ana_index_t, ptr %12, i32 0, i32 2
  store i32 %11, ptr %13, align 8, !tbaa !238
  ret void
}