; Function Attrs: mustprogress uwtable
define void @_Z21gmx_ana_index_squeezeP15gmx_ana_index_t(ptr noundef captures(none) initializes((16, 20)) %0) local_unnamed_addr #0 {
  %2 = getelementptr inbounds nuw i8, ptr %0, i64 8
  %3 = load i32, ptr %0, align 8, !tbaa !73
  %4 = sext i32 %3 to i64
  %5 = load ptr, ptr %2, align 8, !tbaa !30
  %6 = tail call noundef ptr @_Z12save_reallocPKcS0_iPvmm(ptr noundef nonnull @.str.11, ptr noundef nonnull @.str.3, i32 noundef 291, ptr noundef %5, i64 noundef range(i64 -2147483648, 2147483648) %4, i64 noundef 4)
  store ptr %6, ptr %2, align 8, !tbaa !30
  %7 = load i32, ptr %0, align 8, !tbaa !73
  %8 = getelementptr inbounds nuw i8, ptr %0, i64 16
  store i32 %7, ptr %8, align 8, !tbaa !75
  ret void
}